; Function Attrs: mustprogress uwtable
define hidden noundef zeroext i1 @_ZN12mpbq_manager2eqERK4mpbqRK3mpq(ptr noundef nonnull align 8 dereferenceable(208) %0, ptr noundef nonnull align 8 dereferenceable(20) %1, ptr noundef nonnull align 8 dereferenceable(32) %2) local_unnamed_addr #3 align 2 {
  %4 = getelementptr inbounds nuw i8, ptr %1, i64 16
  %5 = load i32, ptr %4, align 8, !tbaa !13
  %6 = icmp eq i32 %5, 0
  br i1 %6, label %7, label %34

7:                                                ; preds = %3
  %8 = getelementptr inbounds nuw i8, ptr %2, i64 16
  %9 = getelementptr inbounds nuw i8, ptr %2, i64 20
  %10 = load i8, ptr %9, align 4
  %11 = and i8 %10, 1
  %12 = icmp eq i8 %11, 0
  %13 = load i32, ptr %8, align 8
  %14 = icmp eq i32 %13, 1
  %15 = select i1 %12, i1 %14, i1 false
  br i1 %15, label %16, label %34

16:                                               ; preds = %7
  %17 = load ptr, ptr %0, align 8, !tbaa !26
  %18 = getelementptr inbounds nuw i8, ptr %1, i64 4
  %19 = load i8, ptr %18, align 4
  %20 = and i8 %19, 1
  %21 = icmp eq i8 %20, 0
  br i1 %21, label %22, label %31

22:                                               ; preds = %16
  %23 = getelementptr inbounds nuw i8, ptr %2, i64 4
  %24 = load i8, ptr %23, align 4
  %25 = and i8 %24, 1
  %26 = icmp eq i8 %25, 0
  br i1 %26, label %27, label %31

27:                                               ; preds = %22
  %28 = load i32, ptr %1, align 8, !tbaa !3
  %29 = load i32, ptr %2, align 8, !tbaa !3
  %30 = icmp eq i32 %28, %29
  br label %_ZN11mpz_managerILb0EE2eqERK3mpzS3_.exit

31:                                               ; preds = %22, %16
  %32 = tail call noundef i32 @_ZN11mpz_managerILb0EE11big_compareERK3mpzS3_(ptr noundef nonnull align 8 dereferenceable(600) %17, ptr noundef nonnull align 8 dereferenceable(16) %1, ptr noundef nonnull align 8 dereferenceable(16) %2)
  %33 = icmp eq i32 %32, 0
  br label %_ZN11mpz_managerILb0EE2eqERK3mpzS3_.exit

34:                                               ; preds = %7, %3
  %35 = load ptr, ptr %0, align 8, !tbaa !26
  %36 = getelementptr inbounds nuw i8, ptr %0, i64 8
  %37 = getelementptr inbounds nuw i8, ptr %2, i64 4
  %38 = load i8, ptr %37, align 4
  %39 = and i8 %38, 1
  %40 = icmp eq i8 %39, 0
  br i1 %40, label %41, label %46

41:                                               ; preds = %34
  %42 = load i32, ptr %2, align 8, !tbaa !3
  store i32 %42, ptr %36, align 8, !tbaa !3
  %43 = getelementptr inbounds nuw i8, ptr %0, i64 12
  %44 = load i8, ptr %43, align 4
  %45 = and i8 %44, -2
  store i8 %45, ptr %43, align 4
  br label %_ZN11mpz_managerILb0EE5mul2kERK3mpzjRS1_.exit

46:                                               ; preds = %34
  tail call void @_ZN11mpz_managerILb0EE7big_setER3mpzRKS1_(ptr noundef nonnull align 8 dereferenceable(600) %35, ptr noundef nonnull align 8 dereferenceable(16) %36, ptr noundef nonnull align 8 dereferenceable(16) %2)
  br label %_ZN11mpz_managerILb0EE5mul2kERK3mpzjRS1_.exit

_ZN11mpz_managerILb0EE5mul2kERK3mpzjRS1_.exit:    ; preds = %41, %46
  tail call void @_ZN11mpz_managerILb0EE5mul2kER3mpzj(ptr noundef nonnull align 8 dereferenceable(600) %35, ptr noundef nonnull align 8 dereferenceable(16) %36, i32 noundef %5)
  %47 = load ptr, ptr %0, align 8, !tbaa !26
  %48 = getelementptr inbounds nuw i8, ptr %2, i64 16
  %49 = getelementptr inbounds nuw i8, ptr %0, i64 24
  tail call void @_ZN11mpz_managerILb0EE3mulERK3mpzS3_RS1_(ptr noundef nonnull align 8 dereferenceable(600) %47, ptr noundef nonnull align 8 dereferenceable(16) %1, ptr noundef nonnull align 8 dereferenceable(16) %48, ptr noundef nonnull align 8 dereferenceable(16) %49)
  %50 = load ptr, ptr %0, align 8, !tbaa !26
  %51 = getelementptr inbounds nuw i8, ptr %0, i64 12
  %52 = load i8, ptr %51, align 4
  %53 = and i8 %52, 1
  %54 = icmp eq i8 %53, 0
  br i1 %54, label %55, label %64

55:                                               ; preds = %_ZN11mpz_managerILb0EE5mul2kERK3mpzjRS1_.exit
  %56 = getelementptr inbounds nuw i8, ptr %0, i64 28
  %57 = load i8, ptr %56, align 4
  %58 = and i8 %57, 1
  %59 = icmp eq i8 %58, 0
  br i1 %59, label %60, label %64

60:                                               ; preds = %55
  %61 = load i32, ptr %36, align 8, !tbaa !3
  %62 = load i32, ptr %49, align 8, !tbaa !3
  %63 = icmp eq i32 %61, %62
  br label %_ZN11mpz_managerILb0EE2eqERK3mpzS3_.exit

64:                                               ; preds = %55, %_ZN11mpz_managerILb0EE5mul2kERK3mpzjRS1_.exit
  %65 = tail call noundef i32 @_ZN11mpz_managerILb0EE11big_compareERK3mpzS3_(ptr noundef nonnull align 8 dereferenceable(600) %50, ptr noundef nonnull align 8 dereferenceable(16) %36, ptr noundef nonnull align 8 dereferenceable(16) %49)
  %66 = icmp eq i32 %65, 0
  br label %_ZN11mpz_managerILb0EE2eqERK3mpzS3_.exit

_ZN11mpz_managerILb0EE2eqERK3mpzS3_.exit:         ; preds = %64, %60, %31, %27
  %.0 = phi i1 [ %30, %27 ], [ %33, %31 ], [ %63, %60 ], [ %66, %64 ]
  ret i1 %.0
}